target datalayout = "e-m:e-p270:32:32-p271:32:32-p272:64:64-i64:64-i128:128-f80:128-n8:16:32:64-S128"
target triple = "x86_64-unknown-linux-gnu"

%struct.parse = type { ptr, ptr, i32, ptr, i64, i64, i32, ptr, [10 x i64], [10 x i64] }

; Function Attrs: nounwind uwtable
define internal void @bothcases(ptr noundef %p, i32 noundef %ch) #0 {
entry:
  %p.addr = alloca ptr, align 8
  %ch.addr = alloca i32, align 4
  %oldnext = alloca ptr, align 8
  %oldend = alloca ptr, align 8
  %bracket = alloca [3 x i8], align 1
  store ptr %p, ptr %p.addr, align 8
  store i32 %ch, ptr %ch.addr, align 4
  %0 = load ptr, ptr %p.addr, align 8
  %next = getelementptr inbounds %struct.parse, ptr %0, i32 0, i32 0
  %1 = load ptr, ptr %next, align 8
  store ptr %1, ptr %oldnext, align 8
  %2 = load ptr, ptr %p.addr, align 8
  %end = getelementptr inbounds %struct.parse, ptr %2, i32 0, i32 1
  %3 = load ptr, ptr %end, align 8
  store ptr %3, ptr %oldend, align 8
  %4 = load i32, ptr %ch.addr, align 4
  %conv = trunc i32 %4 to i8
  %conv1 = zext i8 %conv to i32
  store i32 %conv1, ptr %ch.addr, align 4
  %arraydecay = getelementptr inbounds [3 x i8], ptr %bracket, i64 0, i64 0
  %5 = load ptr, ptr %p.addr, align 8
  %next2 = getelementptr inbounds %struct.parse, ptr %5, i32 0, i32 0
  store ptr %arraydecay, ptr %next2, align 8
  %arraydecay3 = getelementptr inbounds [3 x i8], ptr %bracket, i64 0, i64 0
  %add.ptr = getelementptr inbounds i8, ptr %arraydecay3, i64 2
  %6 = load ptr, ptr %p.addr, align 8
  %end4 = getelementptr inbounds %struct.parse, ptr %6, i32 0, i32 1
  store ptr %add.ptr, ptr %end4, align 8
  %7 = load i32, ptr %ch.addr, align 4
  %conv5 = trunc i32 %7 to i8
  %arrayidx = getelementptr inbounds [3 x i8], ptr %bracket, i64 0, i64 0
  store i8 %conv5, ptr %arrayidx, align 1
  %arrayidx6 = getelementptr inbounds [3 x i8], ptr %bracket, i64 0, i64 1
  store i8 93, ptr %arrayidx6, align 1
  %arrayidx7 = getelementptr inbounds [3 x i8], ptr %bracket, i64 0, i64 2
  store i8 0, ptr %arrayidx7, align 1
  %8 = load ptr, ptr %p.addr, align 8
  call void @p_bracket(ptr noundef %8)
  %9 = load ptr, ptr %oldnext, align 8
  %10 = load ptr, ptr %p.addr, align 8
  %next8 = getelementptr inbounds %struct.parse, ptr %10, i32 0, i32 0
  store ptr %9, ptr %next8, align 8
  %11 = load ptr, ptr %oldend, align 8
  %12 = load ptr, ptr %p.addr, align 8
  %end9 = getelementptr inbounds %struct.parse, ptr %12, i32 0, i32 1
  store ptr %11, ptr %end9, align 8
  ret void
}