; Function Attrs: nounwind uwtable
define internal fastcc void @bothcases(ptr noundef nonnull %p, i32 noundef %ch) unnamed_addr #0 {
entry:
  %bracket = alloca [3 x i8], align 1
  %0 = load ptr, ptr %p, align 8
  %end = getelementptr inbounds nuw i8, ptr %p, i64 8
  %1 = load ptr, ptr %end, align 8
  %conv = trunc i32 %ch to i8
  store ptr %bracket, ptr %p, align 8
  %add.ptr = getelementptr inbounds nuw i8, ptr %bracket, i64 2
  store ptr %add.ptr, ptr %end, align 8
  store i8 %conv, ptr %bracket, align 1
  %arrayidx6 = getelementptr inbounds nuw i8, ptr %bracket, i64 1
  store i8 93, ptr %arrayidx6, align 1
  store i8 0, ptr %add.ptr, align 1
  call fastcc void @p_bracket(ptr noundef %p)
  store ptr %0, ptr %p, align 8
  store ptr %1, ptr %end, align 8
  ret void
}